; ModuleID = '51/376.c'
source_filename = "51/376.c"
target datalayout = "e-m:e-p270:32:32-p271:32:32-p272:64:64-i64:64-f80:128-n8:16:32:64-S128"
target triple = "x86_64-pc-linux-gnu"

@.str = private unnamed_addr constant [3 x i8] c"%d\00", align 1
@.str.1 = private unnamed_addr constant [3 x i8] c"NO\00", align 1
@.str.2 = private unnamed_addr constant [4 x i8] c"%d\0A\00", align 1

; Function Attrs: noinline nounwind uwtable
define dso_local i32 @main() #0 {
  %1 = alloca i32, align 4
  %2 = alloca i32, align 4
  %3 = alloca [500 x i8], align 16
  %4 = alloca [500 x [6 x i8]], align 16
  %5 = alloca i32, align 4
  %6 = alloca i32, align 4
  %7 = alloca i32, align 4
  %8 = alloca i32, align 4
  %9 = alloca [500 x i32], align 16
  %10 = alloca i32, align 4
  %11 = alloca i32, align 4
  %12 = alloca i32, align 4
  %13 = alloca [500 x i32], align 16
  %14 = alloca i32, align 4
  %15 = alloca i32, align 4
  store i32 0, i32* %1, align 4
  %16 = call i32 (i8*, ...) @__isoc99_scanf(i8* getelementptr inbounds ([3 x i8], [3 x i8]* @.str, i64 0, i64 0), i32* %2)
  %17 = call i32 @getchar()
  %18 = getelementptr inbounds [500 x i8], [500 x i8]* %3, i64 0, i64 0
  %19 = call i32 (i8*, ...) bitcast (i32 (...)* @gets to i32 (i8*, ...)*)(i8* %18)
  store i32 0, i32* %5, align 4
  store i32 0, i32* %6, align 4
  store i32 0, i32* %7, align 4
  %20 = getelementptr inbounds [500 x i8], [500 x i8]* %3, i64 0, i64 0
  %21 = call i64 @strlen(i8* %20) #4
  %22 = trunc i64 %21 to i32
  store i32 %22, i32* %8, align 4
  br label %23

23:                                               ; preds = %50, %0
  %24 = load i32, i32* %7, align 4
  %25 = load i32, i32* %8, align 4
  %26 = load i32, i32* %2, align 4
  %27 = sub nsw i32 %25, %26
  %28 = add nsw i32 %27, 1
  %29 = icmp slt i32 %24, %28
  br i1 %29, label %30, label %63

30:                                               ; preds = %23
  br label %31

31:                                               ; preds = %35, %30
  %32 = load i32, i32* %5, align 4
  %33 = load i32, i32* %2, align 4
  %34 = icmp slt i32 %32, %33
  br i1 %34, label %35, label %50

35:                                               ; preds = %31
  %36 = load i32, i32* %7, align 4
  %37 = sext i32 %36 to i64
  %38 = getelementptr inbounds [500 x i8], [500 x i8]* %3, i64 0, i64 %37
  %39 = load i8, i8* %38, align 1
  %40 = load i32, i32* %6, align 4
  %41 = sext i32 %40 to i64
  %42 = getelementptr inbounds [500 x [6 x i8]], [500 x [6 x i8]]* %4, i64 0, i64 %41
  %43 = load i32, i32* %5, align 4
  %44 = sext i32 %43 to i64
  %45 = getelementptr inbounds [6 x i8], [6 x i8]* %42, i64 0, i64 %44
  store i8 %39, i8* %45, align 1
  %46 = load i32, i32* %7, align 4
  %47 = add nsw i32 %46, 1
  store i32 %47, i32* %7, align 4
  %48 = load i32, i32* %5, align 4
  %49 = add nsw i32 %48, 1
  store i32 %49, i32* %5, align 4
  br label %31

50:                                               ; preds = %31
  %51 = load i32, i32* %6, align 4
  %52 = sext i32 %51 to i64
  %53 = getelementptr inbounds [500 x [6 x i8]], [500 x [6 x i8]]* %4, i64 0, i64 %52
  %54 = load i32, i32* %5, align 4
  %55 = sext i32 %54 to i64
  %56 = getelementptr inbounds [6 x i8], [6 x i8]* %53, i64 0, i64 %55
  store i8 0, i8* %56, align 1
  %57 = load i32, i32* %7, align 4
  %58 = load i32, i32* %2, align 4
  %59 = sub nsw i32 %58, 1
  %60 = sub nsw i32 %57, %59
  store i32 %60, i32* %7, align 4
  store i32 0, i32* %5, align 4
  %61 = load i32, i32* %6, align 4
  %62 = add nsw i32 %61, 1
  store i32 %62, i32* %6, align 4
  br label %23

63:                                               ; preds = %23
  %64 = bitcast [500 x i32]* %13 to i8*
  call void @llvm.memset.p0i8.i64(i8* align 16 %64, i8 0, i64 2000, i1 false)
  store i32 0, i32* %10, align 4
  br label %65

65:                                               ; preds = %101, %63
  %66 = load i32, i32* %10, align 4
  %67 = load i32, i32* %6, align 4
  %68 = icmp slt i32 %66, %67
  br i1 %68, label %69, label %104

69:                                               ; preds = %65
  %70 = load i32, i32* %10, align 4
  %71 = add nsw i32 %70, 1
  store i32 %71, i32* %11, align 4
  br label %72

72:                                               ; preds = %97, %69
  %73 = load i32, i32* %11, align 4
  %74 = load i32, i32* %6, align 4
  %75 = icmp slt i32 %73, %74
  br i1 %75, label %76, label %100

76:                                               ; preds = %72
  %77 = load i32, i32* %10, align 4
  %78 = sext i32 %77 to i64
  %79 = getelementptr inbounds [500 x [6 x i8]], [500 x [6 x i8]]* %4, i64 0, i64 %78
  %80 = getelementptr inbounds [6 x i8], [6 x i8]* %79, i64 0, i64 0
  %81 = load i32, i32* %11, align 4
  %82 = sext i32 %81 to i64
  %83 = getelementptr inbounds [500 x [6 x i8]], [500 x [6 x i8]]* %4, i64 0, i64 %82
  %84 = getelementptr inbounds [6 x i8], [6 x i8]* %83, i64 0, i64 0
  %85 = call i32 @strcmp(i8* %80, i8* %84) #4
  %86 = icmp eq i32 %85, 0
  br i1 %86, label %87, label %96

87:                                               ; preds = %76
  %88 = load i32, i32* %10, align 4
  %89 = sext i32 %88 to i64
  %90 = getelementptr inbounds [500 x i32], [500 x i32]* %13, i64 0, i64 %89
  %91 = load i32, i32* %90, align 4
  %92 = add nsw i32 %91, 1
  %93 = load i32, i32* %10, align 4
  %94 = sext i32 %93 to i64
  %95 = getelementptr inbounds [500 x i32], [500 x i32]* %13, i64 0, i64 %94
  store i32 %92, i32* %95, align 4
  br label %96

96:                                               ; preds = %87, %76
  br label %97

97:                                               ; preds = %96
  %98 = load i32, i32* %11, align 4
  %99 = add nsw i32 %98, 1
  store i32 %99, i32* %11, align 4
  br label %72

100:                                              ; preds = %72
  br label %101

101:                                              ; preds = %100
  %102 = load i32, i32* %10, align 4
  %103 = add nsw i32 %102, 1
  store i32 %103, i32* %10, align 4
  br label %65

104:                                              ; preds = %65
  %105 = getelementptr inbounds [500 x i32], [500 x i32]* %13, i64 0, i64 0
  %106 = load i32, i32* %105, align 16
  store i32 %106, i32* %12, align 4
  store i32 0, i32* %14, align 4
  store i32 0, i32* %14, align 4
  br label %107

107:                                              ; preds = %124, %104
  %108 = load i32, i32* %14, align 4
  %109 = load i32, i32* %6, align 4
  %110 = icmp slt i32 %108, %109
  br i1 %110, label %111, label %127

111:                                              ; preds = %107
  %112 = load i32, i32* %12, align 4
  %113 = load i32, i32* %14, align 4
  %114 = sext i32 %113 to i64
  %115 = getelementptr inbounds [500 x i32], [500 x i32]* %13, i64 0, i64 %114
  %116 = load i32, i32* %115, align 4
  %117 = icmp slt i32 %112, %116
  br i1 %117, label %118, label %123

118:                                              ; preds = %111
  %119 = load i32, i32* %14, align 4
  %120 = sext i32 %119 to i64
  %121 = getelementptr inbounds [500 x i32], [500 x i32]* %13, i64 0, i64 %120
  %122 = load i32, i32* %121, align 4
  store i32 %122, i32* %12, align 4
  br label %123

123:                                              ; preds = %118, %111
  br label %124

124:                                              ; preds = %123
  %125 = load i32, i32* %14, align 4
  %126 = add nsw i32 %125, 1
  store i32 %126, i32* %14, align 4
  br label %107

127:                                              ; preds = %107
  %128 = load i32, i32* %12, align 4
  %129 = icmp eq i32 %128, 0
  br i1 %129, label %130, label %132

130:                                              ; preds = %127
  %131 = call i32 (i8*, ...) @printf(i8* getelementptr inbounds ([3 x i8], [3 x i8]* @.str.1, i64 0, i64 0))
  br label %158

132:                                              ; preds = %127
  %133 = load i32, i32* %12, align 4
  %134 = add nsw i32 %133, 1
  %135 = call i32 (i8*, ...) @printf(i8* getelementptr inbounds ([4 x i8], [4 x i8]* @.str.2, i64 0, i64 0), i32 %134)
  store i32 0, i32* %15, align 4
  br label %136

136:                                              ; preds = %154, %132
  %137 = load i32, i32* %15, align 4
  %138 = load i32, i32* %6, align 4
  %139 = icmp slt i32 %137, %138
  br i1 %139, label %140, label %157

140:                                              ; preds = %136
  %141 = load i32, i32* %15, align 4
  %142 = sext i32 %141 to i64
  %143 = getelementptr inbounds [500 x i32], [500 x i32]* %13, i64 0, i64 %142
  %144 = load i32, i32* %143, align 4
  %145 = load i32, i32* %12, align 4
  %146 = icmp eq i32 %144, %145
  br i1 %146, label %147, label %153

147:                                              ; preds = %140
  %148 = load i32, i32* %15, align 4
  %149 = sext i32 %148 to i64
  %150 = getelementptr inbounds [500 x [6 x i8]], [500 x [6 x i8]]* %4, i64 0, i64 %149
  %151 = getelementptr inbounds [6 x i8], [6 x i8]* %150, i64 0, i64 0
  %152 = call i32 @puts(i8* %151)
  br label %153

153:                                              ; preds = %147, %140
  br label %154

154:                                              ; preds = %153
  %155 = load i32, i32* %15, align 4
  %156 = add nsw i32 %155, 1
  store i32 %156, i32* %15, align 4
  br label %136

157:                                              ; preds = %136
  br label %158

158:                                              ; preds = %157, %130
  ret i32 0
}

declare dso_local i32 @__isoc99_scanf(i8*, ...) #1

declare dso_local i32 @getchar() #1

declare dso_local i32 @gets(...) #1

; Function Attrs: nounwind readonly
declare dso_local i64 @strlen(i8*) #2

; Function Attrs: argmemonly nounwind willreturn
declare void @llvm.memset.p0i8.i64(i8* nocapture writeonly, i8, i64, i1 immarg) #3

; Function Attrs: nounwind readonly
declare dso_local i32 @strcmp(i8*, i8*) #2

declare dso_local i32 @printf(i8*, ...) #1

declare dso_local i32 @puts(i8*) #1


!llvm.module.flags = !{!0}
!llvm.ident = !{!1}

!0 = !{i32 1, !"wchar_size", i32 4}
!1 = !{!"clang version 10.0.0-4ubuntu1 "}
